; Function Attrs: mustprogress uwtable
define noundef i64 @_ZNK18OpenImageIO_v2_6_011ImageOutput6iotellEv(ptr nocapture noundef nonnull readonly align 8 dereferenceable(184) %this) local_unnamed_addr #5 align 2 {
entry:
  %add.ptr.i.i.i.i.i.i = getelementptr inbounds i8, ptr %this, i64 176
  %0 = load ptr, ptr %add.ptr.i.i.i.i.i.i, align 8
  %m_io = getelementptr inbounds i8, ptr %0, i64 16
  %1 = load ptr, ptr %m_io, align 8
  %vtable = load ptr, ptr %1, align 8
  %vfn = getelementptr inbounds i8, ptr %vtable, i64 40
  %2 = load ptr, ptr %vfn, align 8
  %call2 = tail call noundef i64 %2(ptr noundef nonnull align 8 dereferenceable(88) %1)
  ret i64 %call2
}